; Function Attrs: mustprogress uwtable
define dso_local noundef nonnull ptr @_ZNK8Constant5cloneEv(ptr noundef nonnull align 8 dereferenceable(64) %0) unnamed_addr #3 align 2 personality ptr @__gxx_personality_v0 {
  %2 = tail call noalias noundef nonnull dereferenceable(64) ptr @_Znwm(i64 noundef 64) #18
  invoke void @_ZN10ExpressionC2E9eTermType(ptr noundef nonnull align 8 dereferenceable(24) %2, i32 noundef 0)
          to label %.noexc unwind label %10

.noexc:                                           ; preds = %1
  store ptr getelementptr inbounds ({ [24 x ptr] }, ptr @_ZTV8Constant, i64 0, i32 0, i64 2), ptr %2, align 8
  %3 = getelementptr inbounds i8, ptr %2, i64 24
  %4 = getelementptr inbounds i8, ptr %0, i64 24
  %5 = load ptr, ptr %4, align 8
  store ptr %5, ptr %3, align 8
  %6 = getelementptr inbounds i8, ptr %2, i64 32
  %7 = getelementptr inbounds i8, ptr %0, i64 32
  invoke void @_ZNSt7__cxx1112basic_stringIcSt11char_traitsIcESaIcEEC1ERKS4_(ptr noundef nonnull align 8 dereferenceable(32) %6, ptr noundef nonnull align 8 dereferenceable(32) %7)
          to label %_ZN8ConstantC2ERKS_.exit unwind label %8

8:                                                ; preds = %.noexc
  %9 = landingpad { ptr, i32 }
          cleanup
  tail call void @_ZN10ExpressionD2Ev(ptr noundef nonnull align 8 dereferenceable(24) %2) #16
  br label %.body

_ZN8ConstantC2ERKS_.exit:                         ; preds = %.noexc
  ret ptr %2

10:                                               ; preds = %1
  %11 = landingpad { ptr, i32 }
          cleanup
  br label %.body

.body:                                            ; preds = %8, %10
  %eh.lpad-body = phi { ptr, i32 } [ %11, %10 ], [ %9, %8 ]
  tail call void @_ZdlPv(ptr noundef nonnull %2) #17
  resume { ptr, i32 } %eh.lpad-body
}